Certificate:
    Data:
        Version: 3 (0x2)
        Serial Number: 290 (0x122)
    Signature Algorithm: sha256WithRSAEncryption
        Issuer: C=NL, ST=Utrecht, L=Utrecht, O=TNO, OU=IMB/emailAddress=hans.cornelissen@tno.nl
        Validity
            Not Before: May 19 15:38:34 2015 GMT
            Not After : May 18 15:38:34 2016 GMT
        Subject: C=NL, ST=Utrecht, O=TNO, OU=IMB, CN=ep: ecodistrict/emailAddress=hans.cornelissen@tno.nl
        Subject Public Key Info:
            Public Key Algorithm: rsaEncryption
                Public-Key: (1024 bit)
                Modulus:
                    00:e8:88:6e:ed:7a:2c:39:39:ad:1c:84:41:3c:14:
                    29:74:ef:b2:07:b8:00:97:b8:d7:75:d5:e1:5e:a7:
                    ca:33:8e:c1:c3:31:96:e3:e6:61:f8:e4:8c:19:29:
                    db:60:33:1e:17:5c:d6:10:77:fc:8e:b5:ca:7a:e7:
                    81:61:e4:1b:76:56:01:f0:47:18:fe:4c:e0:51:d7:
                    9e:44:57:22:86:39:60:db:e4:d2:c9:92:5b:d2:62:
                    67:bb:f1:30:71:41:3a:e8:ee:17:24:33:22:05:35:
                    a7:53:06:ab:c0:5f:0a:f2:e5:85:fa:ae:87:82:4e:
                    0d:20:93:5f:32:c7:62:04:21
                Exponent: 65537 (0x10001)
        X509v3 extensions:
            X509v3 Basic Constraints: 
                CA:FALSE
            Netscape Comment: 
                OpenSSL Generated Certificate
            X509v3 Subject Key Identifier: 
                F9:94:48:5B:60:7D:4F:38:04:02:33:06:50:F0:C4:A8:D7:49:62:72
            X509v3 Authority Key Identifier: 
                keyid:C6:E2:49:A1:9A:B9:1C:BE:C8:95:38:A3:A0:E0:25:B1:DA:95:B8:1A

    Signature Algorithm: sha256WithRSAEncryption
         35:93:8a:7b:f3:b6:dc:35:ea:56:db:43:28:93:15:9f:75:64:
         5f:50:d2:18:23:90:b5:03:2e:c9:ac:49:16:56:1b:3b:d7:b1:
         d4:ee:d8:a4:59:c7:8c:d7:02:01:7e:25:5e:9d:50:76:fa:cc:
         60:ec:76:64:92:bd:85:43:e7:86:f8:d6:21:97:2a:60:a9:1e:
         cb:fe:a5:5f:45:46:82:be:63:e3:ff:b5:ad:52:c4:d4:5f:a5:
         0f:30:19:19:77:a6:06:60:0e:56:af:98:b7:8c:30:c0:64:e5:
         9d:5b:e5:e0:78:44:64:63:c7:23:4b:30:9c:3d:5c:5b:fb:47:
         02:a4
-----BEGIN CERTIFICATE-----
MIIC5DCCAk2gAwIBAgICASIwDQYJKoZIhvcNAQELBQAwdTELMAkGA1UEBhMCTkwx
EDAOBgNVBAgMB1V0cmVjaHQxEDAOBgNVBAcMB1V0cmVjaHQxDDAKBgNVBAoMA1RO
TzEMMAoGA1UECwwDSU1CMSYwJAYJKoZIhvcNAQkBFhdoYW5zLmNvcm5lbGlzc2Vu
QHRuby5ubDAeFw0xNTA1MTkxNTM4MzRaFw0xNjA1MTgxNTM4MzRaMH0xCzAJBgNV
BAYTAk5MMRAwDgYDVQQIDAdVdHJlY2h0MQwwCgYDVQQKDANUTk8xDDAKBgNVBAsM
A0lNQjEYMBYGA1UEAwwPZXA6IGVjb2Rpc3RyaWN0MSYwJAYJKoZIhvcNAQkBFhdo
YW5zLmNvcm5lbGlzc2VuQHRuby5ubDCBnzANBgkqhkiG9w0BAQEFAAOBjQAwgYkC
gYEA6Ihu7XosOTmtHIRBPBQpdO+yB7gAl7jXddXhXqfKM47BwzGW4+Zh+OSMGSnb
YDMeF1zWEHf8jrXKeueBYeQbdlYB8EcY/kzgUdeeRFcihjlg2+TSyZJb0mJnu/Ew
cUE66O4XJDMiBTWnUwarwF8K8uWF+q6Hgk4NIJNfMsdiBCECAwEAAaN7MHkwCQYD
VR0TBAIwADAsBglghkgBhvhCAQ0EHxYdT3BlblNTTCBHZW5lcmF0ZWQgQ2VydGlm
aWNhdGUwHQYDVR0OBBYEFPmUSFtgfU84BAIzBlDwxKjXSWJyMB8GA1UdIwQYMBaA
FMbiSaGauRy+yJU4o6DgJbHalbgaMA0GCSqGSIb3DQEBCwUAA4GBADWTinvzttw1
6lbbQyiTFZ91ZF9Q0hgjkLUDLsmsSRZWGzvXsdTu2KRZx4zXAgF+JV6dUHb6zGDs
dmSSvYVD54b41iGXKmCpHsv+pV9FRoK+Y+P/ta1SxNRfpQ8wGRl3pgZgDlavmLeM
MMBk5Z1b5eB4RGRjxyNLMJw9XFv7RwKk
-----END CERTIFICATE-----
